target datalayout = "e-m:e-p270:32:32-p271:32:32-p272:64:64-i64:64-i128:128-f80:128-n8:16:32:64-S128"
target triple = "x86_64-pc-linux-gnu"

%"class.OpenSubdiv::v3_6_0::Sdc::Options" = type { i8, i8, i8, i8 }
%"class.OpenSubdiv::v3_6_0::Bfr::FaceTopology" = type { i32, %"class.OpenSubdiv::v3_6_0::Sdc::Options", i32, i32, i32, %"class.OpenSubdiv::v3_6_0::Bfr::MultiVertexTag", i8, %"class.OpenSubdiv::v3_6_0::Vtr::internal::StackBuffer" }
%"class.OpenSubdiv::v3_6_0::Bfr::MultiVertexTag" = type { %"class.OpenSubdiv::v3_6_0::Bfr::FeatureBits" }
%"class.OpenSubdiv::v3_6_0::Bfr::FeatureBits" = type { i16 }
%"class.OpenSubdiv::v3_6_0::Vtr::internal::StackBuffer" = type { ptr, i32, i32, [896 x i8], ptr }
%"class.OpenSubdiv::v3_6_0::Bfr::FaceVertex" = type { %"class.OpenSubdiv::v3_6_0::Bfr::VertexDescriptor", %"class.OpenSubdiv::v3_6_0::Bfr::VertexTag", i16, i16, i8, i8, i32, %"class.OpenSubdiv::v3_6_0::Vtr::internal::StackBuffer.2" }
%"class.OpenSubdiv::v3_6_0::Bfr::VertexDescriptor" = type { i8, i16, float, %"class.OpenSubdiv::v3_6_0::Vtr::internal::StackBuffer.0", %"class.OpenSubdiv::v3_6_0::Vtr::internal::StackBuffer.1" }
%"class.OpenSubdiv::v3_6_0::Vtr::internal::StackBuffer.0" = type { ptr, i32, i32, [64 x i8], ptr }
%"class.OpenSubdiv::v3_6_0::Vtr::internal::StackBuffer.1" = type { ptr, i32, i32, [32 x i8], ptr }
%"class.OpenSubdiv::v3_6_0::Bfr::VertexTag" = type { %"class.OpenSubdiv::v3_6_0::Bfr::FeatureBits" }
%"class.OpenSubdiv::v3_6_0::Vtr::internal::StackBuffer.2" = type { ptr, i32, i32, [32 x i8], ptr }

; Function Attrs: mustprogress nounwind uwtable
define linkonce_odr noundef zeroext i16 @_ZNK10OpenSubdiv6v3_6_03Bfr11FeatureBits7GetBitsEv(ptr noundef nonnull align 2 dereferenceable(2) %0) #3 comdat align 2 {
  %2 = alloca ptr, align 8
  %3 = alloca i16, align 2
  store ptr %0, ptr %2, align 8
  %4 = load ptr, ptr %2, align 8
  call void @llvm.memcpy.p0.p0.i64(ptr align 2 %3, ptr align 2 %4, i64 2, i1 false)
  %5 = load i16, ptr %3, align 2
  ret i16 %5
}

; Function Attrs: mustprogress nounwind uwtable
define linkonce_odr void @_ZN10OpenSubdiv6v3_6_03Bfr11FeatureBitsD2Ev(ptr noundef nonnull align 2 dereferenceable(2) %0) unnamed_addr #3 comdat align 2 {
  %2 = alloca ptr, align 8
  store ptr %0, ptr %2, align 8
  ret void
}

; Function Attrs: mustprogress nounwind uwtable
define linkonce_odr noundef ptr @_ZN10OpenSubdiv6v3_6_03Vtr8internal11StackBufferINS0_3Bfr10FaceVertexELj4ELb0EEcvPS5_Ev(ptr noundef nonnull align 8 dereferenceable(920) %0) #3 comdat align 2 {
  %2 = alloca ptr, align 8
  store ptr %0, ptr %2, align 8
  %3 = load ptr, ptr %2, align 8
  %4 = getelementptr inbounds nuw %"class.OpenSubdiv::v3_6_0::Vtr::internal::StackBuffer", ptr %3, i32 0, i32 0
  %5 = load ptr, ptr %4, align 8
  ret ptr %5
}

; Function Attrs: mustprogress nounwind uwtable
define linkonce_odr void @_ZN10OpenSubdiv6v3_6_03Bfr11FeatureBits7SetBitsEt(ptr noundef nonnull align 2 dereferenceable(2) %0, i16 noundef zeroext %1) #3 comdat align 2 {
  %3 = alloca ptr, align 8
  %4 = alloca i16, align 2
  store ptr %0, ptr %3, align 8
  store i16 %1, ptr %4, align 2
  %5 = load ptr, ptr %3, align 8
  call void @llvm.memcpy.p0.p0.i64(ptr align 2 %5, ptr align 2 %4, i64 2, i1 false)
  ret void
}

; Function Attrs: mustprogress nounwind uwtable
define linkonce_odr noundef i32 @_ZNK10OpenSubdiv6v3_6_03Bfr10FaceVertex18GetNumFaceVerticesEv(ptr noundef nonnull align 8 dereferenceable(224) %0) #3 comdat align 2 {
  %2 = alloca ptr, align 8
  store ptr %0, ptr %2, align 8
  %3 = load ptr, ptr %2, align 8
  %4 = getelementptr inbounds nuw %"class.OpenSubdiv::v3_6_0::Bfr::FaceVertex", ptr %3, i32 0, i32 6
  %5 = load i32, ptr %4, align 8
  ret i32 %5
}

; Function Attrs: mustprogress uwtable
define linkonce_odr void @_ZN10OpenSubdiv6v3_6_03Bfr14MultiVertexTag7CombineERKNS1_9VertexTagE(ptr noundef nonnull align 2 dereferenceable(2) %0, ptr noundef nonnull align 2 dereferenceable(2) %1) #0 comdat align 2 {
  %3 = alloca ptr, align 8
  %4 = alloca ptr, align 8
  store ptr %0, ptr %3, align 8
  store ptr %1, ptr %4, align 8
  %5 = load ptr, ptr %3, align 8
  %6 = call noundef zeroext i16 @_ZNK10OpenSubdiv6v3_6_03Bfr11FeatureBits7GetBitsEv(ptr noundef nonnull align 2 dereferenceable(2) %5)
  %7 = zext i16 %6 to i32
  %8 = load ptr, ptr %4, align 8
  %9 = call noundef zeroext i16 @_ZNK10OpenSubdiv6v3_6_03Bfr11FeatureBits7GetBitsEv(ptr noundef nonnull align 2 dereferenceable(2) %8)
  %10 = zext i16 %9 to i32
  %11 = or i32 %7, %10
  %12 = trunc i32 %11 to i16
  call void @_ZN10OpenSubdiv6v3_6_03Bfr11FeatureBits7SetBitsEt(ptr noundef nonnull align 2 dereferenceable(2) %5, i16 noundef zeroext %12)
  ret void
}

; Function Attrs: mustprogress nounwind uwtable
define linkonce_odr void @_ZN10OpenSubdiv6v3_6_03Bfr9VertexTagD2Ev(ptr noundef nonnull align 2 dereferenceable(2) %0) unnamed_addr #3 comdat align 2 {
  %2 = alloca ptr, align 8
  store ptr %0, ptr %2, align 8
  %3 = load ptr, ptr %2, align 8
  call void @_ZN10OpenSubdiv6v3_6_03Bfr11FeatureBitsD2Ev(ptr noundef nonnull align 2 dereferenceable(2) %3) #7
  ret void
}

; Function Attrs: mustprogress nounwind uwtable
define linkonce_odr noundef zeroext i1 @_ZNK10OpenSubdiv6v3_6_03Bfr9VertexTag11IsUnOrderedEv(ptr noundef nonnull align 2 dereferenceable(2) %0) #3 comdat align 2 {
  %2 = alloca ptr, align 8
  store ptr %0, ptr %2, align 8
  %3 = load ptr, ptr %2, align 8
  %4 = load i16, ptr %3, align 2
  %5 = lshr i16 %4, 8
  %6 = and i16 %5, 1
  %7 = icmp ne i16 %6, 0
  ret i1 %7
}

; Function Attrs: mustprogress nounwind uwtable
define linkonce_odr void @_ZNK10OpenSubdiv6v3_6_03Bfr10FaceVertex6GetTagEv(ptr dead_on_unwind noalias writable sret(%"class.OpenSubdiv::v3_6_0::Bfr::VertexTag") align 2 %0, ptr noundef nonnull align 8 dereferenceable(224) %1) #3 comdat align 2 {
  %3 = alloca ptr, align 8
  %4 = alloca ptr, align 8
  store ptr %0, ptr %3, align 8
  store ptr %1, ptr %4, align 8
  %5 = load ptr, ptr %4, align 8
  %6 = getelementptr inbounds nuw %"class.OpenSubdiv::v3_6_0::Bfr::FaceVertex", ptr %5, i32 0, i32 1
  call void @llvm.memcpy.p0.p0.i64(ptr align 2 %0, ptr align 8 %6, i64 2, i1 false)
  ret void
}

; Function Attrs: mustprogress uwtable
define linkonce_odr noundef nonnull align 8 dereferenceable(224) ptr @_ZN10OpenSubdiv6v3_6_03Bfr12FaceTopology11GetTopologyEi(ptr noundef nonnull align 8 dereferenceable(944) %0, i32 noundef %1) #0 comdat align 2 {
  %3 = alloca ptr, align 8
  %4 = alloca i32, align 4
  store ptr %0, ptr %3, align 8
  store i32 %1, ptr %4, align 4
  %5 = load ptr, ptr %3, align 8
  %6 = getelementptr inbounds nuw %"class.OpenSubdiv::v3_6_0::Bfr::FaceTopology", ptr %5, i32 0, i32 7
  %7 = call noundef ptr @_ZN10OpenSubdiv6v3_6_03Vtr8internal11StackBufferINS0_3Bfr10FaceVertexELj4ELb0EEcvPS5_Ev(ptr noundef nonnull align 8 dereferenceable(920) %6)
  %8 = load i32, ptr %4, align 4
  %9 = sext i32 %8 to i64
  %10 = getelementptr inbounds %"class.OpenSubdiv::v3_6_0::Bfr::FaceVertex", ptr %7, i64 %9
  ret ptr %10
}

; Function Attrs: mustprogress uwtable
define linkonce_odr void @_ZN10OpenSubdiv6v3_6_03Bfr11FeatureBits5ClearEv(ptr noundef nonnull align 2 dereferenceable(2) %0) #0 comdat align 2 {
  %2 = alloca ptr, align 8
  store ptr %0, ptr %2, align 8
  %3 = load ptr, ptr %2, align 8
  call void @_ZN10OpenSubdiv6v3_6_03Bfr11FeatureBits7SetBitsEt(ptr noundef nonnull align 2 dereferenceable(2) %3, i16 noundef zeroext 0)
  ret void
}

; Function Attrs: mustprogress uwtable
define void @_ZN10OpenSubdiv6v3_6_03Bfr12FaceTopology23ResolveUnOrderedCornersEPKi(ptr noundef nonnull align 8 dereferenceable(944) %0, ptr noundef %1) #0 align 2 personality ptr @__gxx_personality_v0 {
  %3 = alloca ptr, align 8
  %4 = alloca ptr, align 8
  %5 = alloca i32, align 4
  %6 = alloca ptr, align 8
  %7 = alloca %"class.OpenSubdiv::v3_6_0::Bfr::VertexTag", align 2
  %8 = alloca ptr, align 8
  %9 = alloca i32, align 4
  %10 = alloca %"class.OpenSubdiv::v3_6_0::Bfr::VertexTag", align 2
  store ptr %0, ptr %3, align 8
  store ptr %1, ptr %4, align 8
  %11 = load ptr, ptr %3, align 8
  %12 = getelementptr inbounds nuw %"class.OpenSubdiv::v3_6_0::Bfr::FaceTopology", ptr %11, i32 0, i32 5
  call void @_ZN10OpenSubdiv6v3_6_03Bfr11FeatureBits5ClearEv(ptr noundef nonnull align 2 dereferenceable(2) %12)
  store i32 0, ptr %5, align 4
  br label %13

13:                                               ; preds = %40, %2
  %14 = load i32, ptr %5, align 4
  %15 = getelementptr inbounds nuw %"class.OpenSubdiv::v3_6_0::Bfr::FaceTopology", ptr %11, i32 0, i32 2
  %16 = load i32, ptr %15, align 8
  %17 = icmp slt i32 %14, %16
  br i1 %17, label %18, label %47

18:                                               ; preds = %13
  %19 = load i32, ptr %5, align 4
  %20 = call noundef nonnull align 8 dereferenceable(224) ptr @_ZN10OpenSubdiv6v3_6_03Bfr12FaceTopology11GetTopologyEi(ptr noundef nonnull align 8 dereferenceable(944) %11, i32 noundef %19)
  store ptr %20, ptr %6, align 8
  %21 = load ptr, ptr %6, align 8
  call void @_ZNK10OpenSubdiv6v3_6_03Bfr10FaceVertex6GetTagEv(ptr dead_on_unwind writable sret(%"class.OpenSubdiv::v3_6_0::Bfr::VertexTag") align 2 %7, ptr noundef nonnull align 8 dereferenceable(224) %21)
  %22 = invoke noundef zeroext i1 @_ZNK10OpenSubdiv6v3_6_03Bfr9VertexTag11IsUnOrderedEv(ptr noundef nonnull align 2 dereferenceable(2) %7)
          to label %23 unwind label %27

23:                                               ; preds = %18
  call void @_ZN10OpenSubdiv6v3_6_03Bfr9VertexTagD2Ev(ptr noundef nonnull align 2 dereferenceable(2) %7) #7
  br i1 %22, label %24, label %31

24:                                               ; preds = %23
  %25 = load ptr, ptr %6, align 8
  %26 = load ptr, ptr %4, align 8
  call void @_ZN10OpenSubdiv6v3_6_03Bfr10FaceVertex21ConnectUnOrderedFacesEPKi(ptr noundef nonnull align 8 dereferenceable(224) %25, ptr noundef %26)
  br label %31

27:                                               ; preds = %18
  %28 = landingpad { ptr, i32 }
          cleanup
  %29 = extractvalue { ptr, i32 } %28, 0
  store ptr %29, ptr %8, align 8
  %30 = extractvalue { ptr, i32 } %28, 1
  store i32 %30, ptr %9, align 4
  call void @_ZN10OpenSubdiv6v3_6_03Bfr9VertexTagD2Ev(ptr noundef nonnull align 2 dereferenceable(2) %7) #7
  br label %48

31:                                               ; preds = %24, %23
  %32 = getelementptr inbounds nuw %"class.OpenSubdiv::v3_6_0::Bfr::FaceTopology", ptr %11, i32 0, i32 5
  %33 = load ptr, ptr %6, align 8
  call void @_ZNK10OpenSubdiv6v3_6_03Bfr10FaceVertex6GetTagEv(ptr dead_on_unwind writable sret(%"class.OpenSubdiv::v3_6_0::Bfr::VertexTag") align 2 %10, ptr noundef nonnull align 8 dereferenceable(224) %33)
  invoke void @_ZN10OpenSubdiv6v3_6_03Bfr14MultiVertexTag7CombineERKNS1_9VertexTagE(ptr noundef nonnull align 2 dereferenceable(2) %32, ptr noundef nonnull align 2 dereferenceable(2) %10)
          to label %34 unwind label %43

34:                                               ; preds = %31
  call void @_ZN10OpenSubdiv6v3_6_03Bfr9VertexTagD2Ev(ptr noundef nonnull align 2 dereferenceable(2) %10) #7
  %35 = load ptr, ptr %6, align 8
  %36 = call noundef i32 @_ZNK10OpenSubdiv6v3_6_03Bfr10FaceVertex18GetNumFaceVerticesEv(ptr noundef nonnull align 8 dereferenceable(224) %35)
  %37 = load ptr, ptr %4, align 8
  %38 = sext i32 %36 to i64
  %39 = getelementptr inbounds i32, ptr %37, i64 %38
  store ptr %39, ptr %4, align 8
  br label %40

40:                                               ; preds = %34
  %41 = load i32, ptr %5, align 4
  %42 = add nsw i32 %41, 1
  store i32 %42, ptr %5, align 4
  br label %13, !llvm.loop !9

43:                                               ; preds = %31
  %44 = landingpad { ptr, i32 }
          cleanup
  %45 = extractvalue { ptr, i32 } %44, 0
  store ptr %45, ptr %8, align 8
  %46 = extractvalue { ptr, i32 } %44, 1
  store i32 %46, ptr %9, align 4
  call void @_ZN10OpenSubdiv6v3_6_03Bfr9VertexTagD2Ev(ptr noundef nonnull align 2 dereferenceable(2) %10) #7
  br label %48

47:                                               ; preds = %13
  ret void

48:                                               ; preds = %43, %27
  %49 = load ptr, ptr %8, align 8
  %50 = load i32, ptr %9, align 4
  %51 = insertvalue { ptr, i32 } poison, ptr %49, 0
  %52 = insertvalue { ptr, i32 } %51, i32 %50, 1
  resume { ptr, i32 } %52
}