; Function Attrs: mustprogress uwtable
define void @_ZN10OpenSubdiv6v3_6_03Bfr12FaceTopology23ResolveUnOrderedCornersEPKi(ptr noundef nonnull align 8 captures(none) dereferenceable(944) initializes((20, 22)) %0, ptr noundef %1) local_unnamed_addr #0 align 2 personality ptr @__gxx_personality_v0 {
  %3 = getelementptr inbounds nuw i8, ptr %0, i64 20
  store i16 0, ptr %3, align 4
  %4 = getelementptr inbounds nuw i8, ptr %0, i64 8
  %5 = load i32, ptr %4, align 8
  %6 = icmp sgt i32 %5, 0
  br i1 %6, label %.lr.ph, label %._crit_edge

.lr.ph:                                           ; preds = %2
  %7 = getelementptr inbounds nuw i8, ptr %0, i64 24
  br label %8

8:                                                ; preds = %.lr.ph, %16
  %9 = phi i32 [ %5, %.lr.ph ], [ %17, %16 ]
  %.0.copyload.i.i16 = phi i16 [ 0, %.lr.ph ], [ %19, %16 ]
  %indvars.iv = phi i64 [ 0, %.lr.ph ], [ %indvars.iv.next, %16 ]
  %.014 = phi ptr [ %1, %.lr.ph ], [ %23, %16 ]
  %10 = load ptr, ptr %7, align 8
  %11 = getelementptr inbounds nuw %"class.OpenSubdiv::v3_6_0::Bfr::FaceVertex", ptr %10, i64 %indvars.iv
  %12 = getelementptr inbounds nuw i8, ptr %11, i64 152
  %13 = load i16, ptr %12, align 8, !noalias !12
  %14 = and i16 %13, 256
  %.not = icmp eq i16 %14, 0
  br i1 %.not, label %16, label %15

15:                                               ; preds = %8
  tail call void @_ZN10OpenSubdiv6v3_6_03Bfr10FaceVertex21ConnectUnOrderedFacesEPKi(ptr noundef nonnull align 8 dereferenceable(224) %11, ptr noundef %.014)
  %.pre = load i16, ptr %12, align 8, !noalias !15
  %.0.copyload.i.i.pre = load i16, ptr %3, align 4
  %.pre18 = load i32, ptr %4, align 8
  br label %16

16:                                               ; preds = %8, %15
  %17 = phi i32 [ %9, %8 ], [ %.pre18, %15 ]
  %.0.copyload.i.i = phi i16 [ %.0.copyload.i.i16, %8 ], [ %.0.copyload.i.i.pre, %15 ]
  %18 = phi i16 [ %13, %8 ], [ %.pre, %15 ]
  %19 = or i16 %.0.copyload.i.i, %18
  store i16 %19, ptr %3, align 4
  %20 = getelementptr inbounds nuw i8, ptr %11, i64 160
  %21 = load i32, ptr %20, align 8
  %22 = sext i32 %21 to i64
  %23 = getelementptr inbounds i32, ptr %.014, i64 %22
  %indvars.iv.next = add nuw nsw i64 %indvars.iv, 1
  %24 = sext i32 %17 to i64
  %25 = icmp slt i64 %indvars.iv.next, %24
  br i1 %25, label %8, label %._crit_edge, !llvm.loop !18

._crit_edge:                                      ; preds = %16, %2
  ret void
}